target datalayout = "e-m:e-p270:32:32-p271:32:32-p272:64:64-i64:64-i128:128-f80:128-n8:16:32:64-S128"
target triple = "x86_64-pc-linux-gnu"

%"class.cv::Point_" = type { float, float }
%"class.cv::Mat" = type { i32, i32, i32, i32, ptr, ptr, ptr, ptr, ptr, ptr, %"struct.cv::MatSize", %"struct.cv::MatStep" }
%"struct.cv::MatSize" = type { ptr }
%"struct.cv::MatStep" = type { ptr, [2 x i64] }
%"struct.cv::face::FacemarkAAM::Config" = type { %"class.cv::Mat", %"class.cv::Point_", float, i32 }

; Function Attrs: mustprogress nounwind uwtable
define linkonce_odr hidden void @_ZN2cv6Point_IfEC2Ev(ptr noundef nonnull align 4 dereferenceable(8) %0) unnamed_addr #5 comdat align 2 {
  %2 = alloca ptr, align 8
  store ptr %0, ptr %2, align 8
  %3 = load ptr, ptr %2, align 8
  %4 = getelementptr inbounds %"class.cv::Point_", ptr %3, i32 0, i32 0
  store float 0.000000e+00, ptr %4, align 4
  %5 = getelementptr inbounds %"class.cv::Point_", ptr %3, i32 0, i32 1
  store float 0.000000e+00, ptr %5, align 4
  ret void
}

; Function Attrs: mustprogress uwtable
define void @_ZN2cv4face11FacemarkAAM6ConfigC2ENS_3MatENS_6Point_IfEEfi(ptr noundef nonnull align 8 dereferenceable(112) %0, ptr noundef %1, <2 x float> %2, float noundef %3, i32 noundef %4) unnamed_addr #6 align 2 personality ptr @__gxx_personality_v0 {
  %6 = alloca %"class.cv::Point_", align 4
  %7 = alloca ptr, align 8
  %8 = alloca ptr, align 8
  %9 = alloca float, align 4
  %10 = alloca i32, align 4
  %11 = alloca ptr, align 8
  %12 = alloca i32, align 4
  %13 = alloca %"class.cv::Mat", align 8
  store <2 x float> %2, ptr %6, align 4
  store ptr %0, ptr %7, align 8
  store ptr %1, ptr %8, align 8
  store float %3, ptr %9, align 4
  store i32 %4, ptr %10, align 4
  %14 = load ptr, ptr %7, align 8
  %15 = getelementptr inbounds %"struct.cv::face::FacemarkAAM::Config", ptr %14, i32 0, i32 0
  call void @_ZN2cv3MatC1Ev(ptr noundef nonnull align 8 dereferenceable(96) %15) #3
  %16 = getelementptr inbounds %"struct.cv::face::FacemarkAAM::Config", ptr %14, i32 0, i32 1
  invoke void @_ZN2cv6Point_IfEC2Ev(ptr noundef nonnull align 4 dereferenceable(8) %16)
          to label %17 unwind label %27

17:                                               ; preds = %5
  invoke void @_ZNK2cv3Mat5cloneEv(ptr dead_on_unwind writable sret(%"class.cv::Mat") align 8 %13, ptr noundef nonnull align 8 dereferenceable(96) %1)
          to label %18 unwind label %27

18:                                               ; preds = %17
  %19 = getelementptr inbounds %"struct.cv::face::FacemarkAAM::Config", ptr %14, i32 0, i32 0
  %20 = invoke noundef nonnull align 8 dereferenceable(96) ptr @_ZN2cv3MataSEOS0_(ptr noundef nonnull align 8 dereferenceable(96) %19, ptr noundef nonnull align 8 dereferenceable(96) %13)
          to label %21 unwind label %31

21:                                               ; preds = %18
  call void @_ZN2cv3MatD1Ev(ptr noundef nonnull align 8 dereferenceable(96) %13) #3
  %22 = getelementptr inbounds %"struct.cv::face::FacemarkAAM::Config", ptr %14, i32 0, i32 1
  call void @llvm.memcpy.p0.p0.i64(ptr align 8 %22, ptr align 4 %6, i64 8, i1 false)
  %23 = load float, ptr %9, align 4
  %24 = getelementptr inbounds %"struct.cv::face::FacemarkAAM::Config", ptr %14, i32 0, i32 2
  store float %23, ptr %24, align 8
  %25 = load i32, ptr %10, align 4
  %26 = getelementptr inbounds %"struct.cv::face::FacemarkAAM::Config", ptr %14, i32 0, i32 3
  store i32 %25, ptr %26, align 4
  ret void

27:                                               ; preds = %17, %5
  %28 = landingpad { ptr, i32 }
          cleanup
  %29 = extractvalue { ptr, i32 } %28, 0
  store ptr %29, ptr %11, align 8
  %30 = extractvalue { ptr, i32 } %28, 1
  store i32 %30, ptr %12, align 4
  br label %35

31:                                               ; preds = %18
  %32 = landingpad { ptr, i32 }
          cleanup
  %33 = extractvalue { ptr, i32 } %32, 0
  store ptr %33, ptr %11, align 8
  %34 = extractvalue { ptr, i32 } %32, 1
  store i32 %34, ptr %12, align 4
  call void @_ZN2cv3MatD1Ev(ptr noundef nonnull align 8 dereferenceable(96) %13) #3
  br label %35

35:                                               ; preds = %31, %27
  call void @_ZN2cv3MatD1Ev(ptr noundef nonnull align 8 dereferenceable(96) %15) #3
  br label %36

36:                                               ; preds = %35
  %37 = load ptr, ptr %11, align 8
  %38 = load i32, ptr %12, align 4
  %39 = insertvalue { ptr, i32 } poison, ptr %37, 0
  %40 = insertvalue { ptr, i32 } %39, i32 %38, 1
  resume { ptr, i32 } %40
}