; Function Attrs: mustprogress uwtable
define void @_ZN2cv4face11FacemarkAAM6ConfigC2ENS_3MatENS_6Point_IfEEfi(ptr noundef nonnull align 8 dereferenceable(112) %0, ptr noundef %1, <2 x float> %2, float noundef %3, i32 noundef %4) unnamed_addr #4 align 2 personality ptr @__gxx_personality_v0 {
  %6 = alloca %"class.cv::Mat", align 8
  tail call void @_ZN2cv3MatC1Ev(ptr noundef nonnull align 8 dereferenceable(96) %0) #22
  %7 = getelementptr inbounds i8, ptr %0, i64 96
  store <2 x float> zeroinitializer, ptr %7, align 8
  invoke void @_ZNK2cv3Mat5cloneEv(ptr dead_on_unwind nonnull writable sret(%"class.cv::Mat") align 8 %6, ptr noundef nonnull align 8 dereferenceable(96) %1)
          to label %8 unwind label %13

8:                                                ; preds = %5
  %9 = invoke noundef nonnull align 8 dereferenceable(96) ptr @_ZN2cv3MataSEOS0_(ptr noundef nonnull align 8 dereferenceable(96) %0, ptr noundef nonnull align 8 dereferenceable(96) %6)
          to label %10 unwind label %15

10:                                               ; preds = %8
  call void @_ZN2cv3MatD1Ev(ptr noundef nonnull align 8 dereferenceable(96) %6) #22
  store <2 x float> %2, ptr %7, align 8
  %11 = getelementptr inbounds i8, ptr %0, i64 104
  store float %3, ptr %11, align 8
  %12 = getelementptr inbounds i8, ptr %0, i64 108
  store i32 %4, ptr %12, align 4
  ret void

13:                                               ; preds = %5
  %14 = landingpad { ptr, i32 }
          cleanup
  br label %17

15:                                               ; preds = %8
  %16 = landingpad { ptr, i32 }
          cleanup
  call void @_ZN2cv3MatD1Ev(ptr noundef nonnull align 8 dereferenceable(96) %6) #22
  br label %17

17:                                               ; preds = %15, %13
  %.pn = phi { ptr, i32 } [ %16, %15 ], [ %14, %13 ]
  call void @_ZN2cv3MatD1Ev(ptr noundef nonnull align 8 dereferenceable(96) %0) #22
  resume { ptr, i32 } %.pn
}